; Function Attrs: nounwind uwtable
define ptr @Gia_SignalCorrespondencePart(ptr noundef %0, ptr noundef readonly captures(none) %1) local_unnamed_addr #0 {
  %3 = alloca %struct.Ssw_Pars_t_, align 8
  %4 = tail call ptr @Gia_ManToAigSimple(ptr noundef %0) #15
  call void @llvm.lifetime.start.p0(i64 184, ptr nonnull %3) #15
  call void @Ssw_ManSetDefaultParams(ptr noundef nonnull %3) #15
  %5 = getelementptr inbounds nuw i8, ptr %1, i64 16
  %6 = load i32, ptr %5, align 8, !tbaa !9
  %7 = getelementptr inbounds nuw i8, ptr %3, i64 32
  store i32 %6, ptr %7, align 8, !tbaa !3
  %8 = getelementptr inbounds nuw i8, ptr %1, i64 20
  %9 = load i32, ptr %8, align 4, !tbaa !94
  %10 = getelementptr inbounds nuw i8, ptr %3, i64 8
  store i32 %9, ptr %10, align 8, !tbaa !49
  %11 = getelementptr inbounds nuw i8, ptr %1, i64 24
  %12 = load i32, ptr %11, align 8, !tbaa !95
  store i32 %12, ptr %3, align 8, !tbaa !63
  %13 = getelementptr inbounds nuw i8, ptr %1, i64 76
  %14 = load i32, ptr %13, align 4, !tbaa !12
  %15 = getelementptr inbounds nuw i8, ptr %3, i64 112
  store i32 %14, ptr %15, align 8, !tbaa !11
  %16 = call ptr @Ssw_SignalCorrespondencePart2(ptr noundef %4, ptr noundef nonnull %3)
  %17 = getelementptr inbounds nuw i8, ptr %4, i64 32
  %18 = load ptr, ptr %17, align 8, !tbaa !76
  %19 = getelementptr i8, ptr %18, i64 4
  %.val9.i = load i32, ptr %19, align 4, !tbaa !14
  %20 = icmp sgt i32 %.val9.i, 0
  br i1 %20, label %.lr.ph.i, label %Gia_ManRestoreNodeMapping.exit

.lr.ph.i:                                         ; preds = %2, %29
  %21 = phi ptr [ %30, %29 ], [ %18, %2 ]
  %indvars.iv.i = phi i64 [ %indvars.iv.next.i, %29 ], [ 0, %2 ]
  %22 = getelementptr i8, ptr %21, i64 8
  %.val8.i = load ptr, ptr %22, align 8, !tbaa !16
  %23 = getelementptr inbounds nuw ptr, ptr %.val8.i, i64 %indvars.iv.i
  %24 = load ptr, ptr %23, align 8, !tbaa !17
  %25 = icmp eq ptr %24, null
  br i1 %25, label %29, label %26

26:                                               ; preds = %.lr.ph.i
  %27 = getelementptr inbounds nuw i8, ptr %24, i64 40
  %indvars.iv.tr.i = trunc i64 %indvars.iv.i to i32
  %28 = shl i32 %indvars.iv.tr.i, 1
  store i32 %28, ptr %27, align 8, !tbaa !92
  %.pre.i = load ptr, ptr %17, align 8, !tbaa !76
  br label %29

29:                                               ; preds = %26, %.lr.ph.i
  %30 = phi ptr [ %.pre.i, %26 ], [ %21, %.lr.ph.i ]
  %indvars.iv.next.i = add nuw nsw i64 %indvars.iv.i, 1
  %31 = getelementptr i8, ptr %30, i64 4
  %.val.i = load i32, ptr %31, align 4, !tbaa !14
  %32 = sext i32 %.val.i to i64
  %33 = icmp slt i64 %indvars.iv.next.i, %32
  br i1 %33, label %.lr.ph.i, label %Gia_ManRestoreNodeMapping.exit, !llvm.loop !93

Gia_ManRestoreNodeMapping.exit:                   ; preds = %29, %2
  call void @Gia_ManReprFromAigRepr2(ptr noundef %4, ptr noundef %0) #15
  %34 = call ptr @Gia_ManFromAigSimple(ptr noundef %16) #15
  call void @Aig_ManStop(ptr noundef %16) #15
  call void @Aig_ManStop(ptr noundef %4) #15
  call void @llvm.lifetime.end.p0(i64 184, ptr nonnull %3) #15
  ret ptr %34
}